target datalayout = "e-m:e-p270:32:32-p271:32:32-p272:64:64-i64:64-i128:128-f80:128-n8:16:32:64-S128"
target triple = "x86_64-pc-linux-gnu"

%struct._lv_global_t = type { i8, i8, %struct.lv_ll_t, ptr, ptr, %struct.lv_ll_t, i8, i32, i32, ptr, %struct.lv_ll_t, ptr, %struct.lv_ll_t, ptr, ptr, i32, ptr, i8, i32, i32, ptr, i32, %struct.lv_timer_state_t, %struct.lv_anim_state_t, %struct.lv_tick_state_t, %struct._lv_draw_buf_handlers_t, %struct._lv_draw_buf_handlers_t, %struct._lv_draw_buf_handlers_t, %struct.lv_ll_t, ptr, ptr, %struct.lv_draw_global_info_t, [4 x %struct.lv_draw_sw_mask_radius_circle_dsc_t], ptr, ptr, ptr, %struct.lv_tlsf_state_t, %struct.lv_ll_t, ptr, ptr, %struct.lv_style_t, i64, ptr, i32, ptr }
%struct.lv_timer_state_t = type { %struct.lv_ll_t, i8, i8, i8, i8, i32, i8, i32, i32, i32, i32, ptr, ptr }
%struct.lv_anim_state_t = type { i8, i8, ptr, %struct.lv_ll_t }
%struct.lv_tick_state_t = type { i32, i8, ptr, ptr }
%struct._lv_draw_buf_handlers_t = type { ptr, ptr, ptr, ptr, ptr, ptr }
%struct.lv_draw_global_info_t = type { ptr, i32, i32, i32, i32, i8 }
%struct.lv_draw_sw_mask_radius_circle_dsc_t = type { ptr, ptr, ptr, ptr, i32, i32, i32 }
%struct.lv_tlsf_state_t = type { ptr, i64, i64, %struct.lv_ll_t }
%struct.lv_ll_t = type { i32, ptr, ptr }
%struct.lv_style_t = type { ptr, i32, i8 }
%struct._lv_fs_drv_t = type { i8, i32, ptr, ptr, ptr, ptr, ptr, ptr, ptr, ptr, ptr, ptr, ptr }
%struct.resolved_path_t = type { i8, ptr }
%struct.lv_fs_file_t = type { ptr, ptr, ptr }
%struct._lv_fs_path_ex_t = type { [4 x i8], ptr, i32 }
%struct._lv_fs_file_cache_t = type { i32, i32, i32, ptr }

@lv_global = external global %struct._lv_global_t, align 8

; Function Attrs: nounwind uwtable
define ptr @lv_fs_get_drv(i8 noundef signext %0) #0 {
  %2 = alloca ptr, align 8
  %3 = alloca i8, align 1
  %4 = alloca ptr, align 8
  %5 = alloca i32, align 4
  store i8 %0, ptr %3, align 1, !tbaa !3
  call void @llvm.lifetime.start.p0(i64 8, ptr %4) #4
  %6 = call ptr @lv_ll_get_head(ptr noundef getelementptr inbounds nuw (%struct._lv_global_t, ptr @lv_global, i32 0, i32 37))
  store ptr %6, ptr %4, align 8, !tbaa !6
  br label %7

7:                                                ; preds = %23, %1
  %8 = load ptr, ptr %4, align 8, !tbaa !6
  %9 = icmp ne ptr %8, null
  br i1 %9, label %10, label %26

10:                                               ; preds = %7
  %11 = load ptr, ptr %4, align 8, !tbaa !6
  %12 = load ptr, ptr %11, align 8, !tbaa !6
  %13 = getelementptr inbounds nuw %struct._lv_fs_drv_t, ptr %12, i32 0, i32 0
  %14 = load i8, ptr %13, align 8, !tbaa !11
  %15 = sext i8 %14 to i32
  %16 = load i8, ptr %3, align 1, !tbaa !3
  %17 = sext i8 %16 to i32
  %18 = icmp eq i32 %15, %17
  br i1 %18, label %19, label %22

19:                                               ; preds = %10
  %20 = load ptr, ptr %4, align 8, !tbaa !6
  %21 = load ptr, ptr %20, align 8, !tbaa !6
  store ptr %21, ptr %2, align 8
  store i32 1, ptr %5, align 4
  br label %27

22:                                               ; preds = %10
  br label %23

23:                                               ; preds = %22
  %24 = load ptr, ptr %4, align 8, !tbaa !6
  %25 = call ptr @lv_ll_get_next(ptr noundef getelementptr inbounds nuw (%struct._lv_global_t, ptr @lv_global, i32 0, i32 37), ptr noundef %24)
  store ptr %25, ptr %4, align 8, !tbaa !6
  br label %7, !llvm.loop !12

26:                                               ; preds = %7
  store ptr null, ptr %2, align 8
  store i32 1, ptr %5, align 4
  br label %27

27:                                               ; preds = %26, %19
  call void @llvm.lifetime.end.p0(i64 8, ptr %4) #4
  %28 = load ptr, ptr %2, align 8
  ret ptr %28
}

; Function Attrs: nounwind uwtable
define internal { i8, ptr } @lv_fs_resolve_path(ptr noundef %0) #0 {
  %2 = alloca %struct.resolved_path_t, align 8
  %3 = alloca ptr, align 8
  store ptr %0, ptr %3, align 8, !tbaa !6
  %4 = load ptr, ptr %3, align 8, !tbaa !6
  %5 = getelementptr inbounds i8, ptr %4, i64 0
  %6 = load i8, ptr %5, align 1, !tbaa !3
  %7 = getelementptr inbounds nuw %struct.resolved_path_t, ptr %2, i32 0, i32 0
  store i8 %6, ptr %7, align 8, !tbaa !15
  %8 = load ptr, ptr %3, align 8, !tbaa !6
  %9 = load i8, ptr %8, align 1, !tbaa !3
  %10 = sext i8 %9 to i32
  %11 = icmp ne i32 %10, 0
  br i1 %11, label %12, label %23

12:                                               ; preds = %1
  %13 = load ptr, ptr %3, align 8, !tbaa !6
  %14 = getelementptr inbounds nuw i8, ptr %13, i32 1
  store ptr %14, ptr %3, align 8, !tbaa !6
  %15 = load ptr, ptr %3, align 8, !tbaa !6
  %16 = load i8, ptr %15, align 1, !tbaa !3
  %17 = sext i8 %16 to i32
  %18 = icmp eq i32 %17, 58
  br i1 %18, label %19, label %22

19:                                               ; preds = %12
  %20 = load ptr, ptr %3, align 8, !tbaa !6
  %21 = getelementptr inbounds nuw i8, ptr %20, i32 1
  store ptr %21, ptr %3, align 8, !tbaa !6
  br label %22

22:                                               ; preds = %19, %12
  br label %23

23:                                               ; preds = %22, %1
  %24 = load ptr, ptr %3, align 8, !tbaa !6
  %25 = getelementptr inbounds nuw %struct.resolved_path_t, ptr %2, i32 0, i32 1
  store ptr %24, ptr %25, align 8, !tbaa !22
  %26 = load { i8, ptr }, ptr %2, align 8
  ret { i8, ptr } %26
}

; Function Attrs: nounwind uwtable
define i32 @lv_fs_open(ptr noundef %0, ptr noundef %1, i32 noundef %2) #0 {
  %4 = alloca i32, align 4
  %5 = alloca ptr, align 8
  %6 = alloca ptr, align 8
  %7 = alloca i32, align 4
  %8 = alloca %struct.resolved_path_t, align 8
  %9 = alloca ptr, align 8
  %10 = alloca i32, align 4
  %11 = alloca ptr, align 8
  %12 = alloca ptr, align 8
  store ptr %0, ptr %5, align 8, !tbaa !6
  store ptr %1, ptr %6, align 8, !tbaa !6
  store i32 %2, ptr %7, align 4, !tbaa !14
  %13 = load ptr, ptr %6, align 8, !tbaa !6
  %14 = icmp eq ptr %13, null
  br i1 %14, label %15, label %18

15:                                               ; preds = %3
  br label %16

16:                                               ; preds = %15
  br label %17

17:                                               ; preds = %16
  store i32 11, ptr %4, align 4
  br label %158

18:                                               ; preds = %3
  call void @llvm.lifetime.start.p0(i64 16, ptr %8) #4
  %19 = load ptr, ptr %6, align 8, !tbaa !6
  %20 = call { i8, ptr } @lv_fs_resolve_path(ptr noundef %19)
  %21 = getelementptr inbounds nuw { i8, ptr }, ptr %8, i32 0, i32 0
  %22 = extractvalue { i8, ptr } %20, 0
  store i8 %22, ptr %21, align 8
  %23 = getelementptr inbounds nuw { i8, ptr }, ptr %8, i32 0, i32 1
  %24 = extractvalue { i8, ptr } %20, 1
  store ptr %24, ptr %23, align 8
  call void @llvm.lifetime.start.p0(i64 8, ptr %9) #4
  %25 = getelementptr inbounds nuw %struct.resolved_path_t, ptr %8, i32 0, i32 0
  %26 = load i8, ptr %25, align 8, !tbaa !15
  %27 = call ptr @lv_fs_get_drv(i8 noundef signext %26)
  store ptr %27, ptr %9, align 8, !tbaa !6
  %28 = load ptr, ptr %9, align 8, !tbaa !6
  %29 = icmp eq ptr %28, null
  br i1 %29, label %30, label %34

30:                                               ; preds = %18
  br label %31

31:                                               ; preds = %30
  br label %32

32:                                               ; preds = %31
  br label %33

33:                                               ; preds = %32
  store i32 3, ptr %4, align 4
  store i32 1, ptr %10, align 4
  br label %157

34:                                               ; preds = %18
  %35 = load ptr, ptr %9, align 8, !tbaa !6
  %36 = getelementptr inbounds nuw %struct._lv_fs_drv_t, ptr %35, i32 0, i32 2
  %37 = load ptr, ptr %36, align 8, !tbaa !8
  %38 = icmp ne ptr %37, null
  br i1 %38, label %39, label %52

39:                                               ; preds = %34
  %40 = load ptr, ptr %9, align 8, !tbaa !6
  %41 = getelementptr inbounds nuw %struct._lv_fs_drv_t, ptr %40, i32 0, i32 2
  %42 = load ptr, ptr %41, align 8, !tbaa !8
  %43 = load ptr, ptr %9, align 8, !tbaa !6
  %44 = call zeroext i1 %42(ptr noundef %43)
  %45 = zext i1 %44 to i32
  %46 = icmp eq i32 %45, 0
  br i1 %46, label %47, label %51

47:                                               ; preds = %39
  br label %48

48:                                               ; preds = %47
  br label %49

49:                                               ; preds = %48
  br label %50

50:                                               ; preds = %49
  store i32 1, ptr %4, align 4
  store i32 1, ptr %10, align 4
  br label %157

51:                                               ; preds = %39
  br label %52

52:                                               ; preds = %51, %34
  %53 = load ptr, ptr %9, align 8, !tbaa !6
  %54 = getelementptr inbounds nuw %struct._lv_fs_drv_t, ptr %53, i32 0, i32 3
  %55 = load ptr, ptr %54, align 8, !tbaa !17
  %56 = icmp eq ptr %55, null
  br i1 %56, label %57, label %61

57:                                               ; preds = %52
  br label %58

58:                                               ; preds = %57
  br label %59

59:                                               ; preds = %58
  br label %60

60:                                               ; preds = %59
  store i32 9, ptr %4, align 4
  store i32 1, ptr %10, align 4
  br label %157

61:                                               ; preds = %52
  %62 = load ptr, ptr %9, align 8, !tbaa !6
  %63 = load ptr, ptr %5, align 8, !tbaa !6
  %64 = getelementptr inbounds nuw %struct.lv_fs_file_t, ptr %63, i32 0, i32 1
  store ptr %62, ptr %64, align 8, !tbaa !18
  %65 = load ptr, ptr %9, align 8, !tbaa !6
  %66 = getelementptr inbounds nuw %struct._lv_fs_drv_t, ptr %65, i32 0, i32 1
  %67 = load i32, ptr %66, align 4, !tbaa !20
  %68 = icmp eq i32 %67, -1
  br i1 %68, label %69, label %73

69:                                               ; preds = %61
  %70 = load ptr, ptr %5, align 8, !tbaa !6
  %71 = load ptr, ptr %5, align 8, !tbaa !6
  %72 = getelementptr inbounds nuw %struct.lv_fs_file_t, ptr %71, i32 0, i32 0
  store ptr %70, ptr %72, align 8, !tbaa !21
  br label %95

73:                                               ; preds = %61
  call void @llvm.lifetime.start.p0(i64 8, ptr %11) #4
  %74 = load ptr, ptr %9, align 8, !tbaa !6
  %75 = getelementptr inbounds nuw %struct._lv_fs_drv_t, ptr %74, i32 0, i32 3
  %76 = load ptr, ptr %75, align 8, !tbaa !17
  %77 = load ptr, ptr %9, align 8, !tbaa !6
  %78 = getelementptr inbounds nuw %struct.resolved_path_t, ptr %8, i32 0, i32 1
  %79 = load ptr, ptr %78, align 8, !tbaa !22
  %80 = load i32, ptr %7, align 4, !tbaa !14
  %81 = call ptr %76(ptr noundef %77, ptr noundef %79, i32 noundef %80)
  store ptr %81, ptr %11, align 8, !tbaa !6
  %82 = load ptr, ptr %11, align 8, !tbaa !6
  %83 = icmp eq ptr %82, null
  br i1 %83, label %87, label %84

84:                                               ; preds = %73
  %85 = load ptr, ptr %11, align 8, !tbaa !6
  %86 = icmp eq ptr %85, inttoptr (i64 -1 to ptr)
  br i1 %86, label %87, label %88

87:                                               ; preds = %84, %73
  store i32 12, ptr %4, align 4
  store i32 1, ptr %10, align 4
  br label %92

88:                                               ; preds = %84
  %89 = load ptr, ptr %11, align 8, !tbaa !6
  %90 = load ptr, ptr %5, align 8, !tbaa !6
  %91 = getelementptr inbounds nuw %struct.lv_fs_file_t, ptr %90, i32 0, i32 0
  store ptr %89, ptr %91, align 8, !tbaa !21
  store i32 0, ptr %10, align 4
  br label %92

92:                                               ; preds = %88, %87
  call void @llvm.lifetime.end.p0(i64 8, ptr %11) #4
  %93 = load i32, ptr %10, align 4
  switch i32 %93, label %157 [
    i32 0, label %94
  ]

94:                                               ; preds = %92
  br label %95

95:                                               ; preds = %94, %69
  %96 = load ptr, ptr %9, align 8, !tbaa !6
  %97 = getelementptr inbounds nuw %struct._lv_fs_drv_t, ptr %96, i32 0, i32 1
  %98 = load i32, ptr %97, align 4, !tbaa !20
  %99 = icmp ne i32 %98, 0
  br i1 %99, label %100, label %156

100:                                              ; preds = %95
  %101 = call ptr @lv_malloc_zeroed(i64 noundef 24)
  %102 = load ptr, ptr %5, align 8, !tbaa !6
  %103 = getelementptr inbounds nuw %struct.lv_fs_file_t, ptr %102, i32 0, i32 2
  store ptr %101, ptr %103, align 8, !tbaa !23
  br label %104

104:                                              ; preds = %100
  %105 = load ptr, ptr %5, align 8, !tbaa !6
  %106 = getelementptr inbounds nuw %struct.lv_fs_file_t, ptr %105, i32 0, i32 2
  %107 = load ptr, ptr %106, align 8, !tbaa !23
  %108 = icmp ne ptr %107, null
  br i1 %108, label %115, label %109

109:                                              ; preds = %104
  br label %110

110:                                              ; preds = %109
  br label %111

111:                                              ; preds = %110
  br label %112

112:                                              ; preds = %111
  br label %113

113:                                              ; preds = %114, %112
  br label %114

114:                                              ; preds = %113
  br label %113

115:                                              ; preds = %104
  br label %116

116:                                              ; preds = %115
  br label %117

117:                                              ; preds = %116
  %118 = load ptr, ptr %9, align 8, !tbaa !6
  %119 = getelementptr inbounds nuw %struct._lv_fs_drv_t, ptr %118, i32 0, i32 1
  %120 = load i32, ptr %119, align 4, !tbaa !20
  %121 = icmp eq i32 %120, -1
  br i1 %121, label %122, label %146

122:                                              ; preds = %117
  call void @llvm.lifetime.start.p0(i64 8, ptr %12) #4
  %123 = load ptr, ptr %6, align 8, !tbaa !6
  store ptr %123, ptr %12, align 8, !tbaa !6
  %124 = load ptr, ptr %12, align 8, !tbaa !6
  %125 = getelementptr inbounds nuw %struct._lv_fs_path_ex_t, ptr %124, i32 0, i32 1
  %126 = load ptr, ptr %125, align 8, !tbaa !24
  %127 = load ptr, ptr %5, align 8, !tbaa !6
  %128 = getelementptr inbounds nuw %struct.lv_fs_file_t, ptr %127, i32 0, i32 2
  %129 = load ptr, ptr %128, align 8, !tbaa !23
  %130 = getelementptr inbounds nuw %struct._lv_fs_file_cache_t, ptr %129, i32 0, i32 3
  store ptr %126, ptr %130, align 8, !tbaa !26
  %131 = load ptr, ptr %5, align 8, !tbaa !6
  %132 = getelementptr inbounds nuw %struct.lv_fs_file_t, ptr %131, i32 0, i32 2
  %133 = load ptr, ptr %132, align 8, !tbaa !23
  %134 = getelementptr inbounds nuw %struct._lv_fs_file_cache_t, ptr %133, i32 0, i32 0
  store i32 0, ptr %134, align 8, !tbaa !28
  %135 = load ptr, ptr %5, align 8, !tbaa !6
  %136 = getelementptr inbounds nuw %struct.lv_fs_file_t, ptr %135, i32 0, i32 2
  %137 = load ptr, ptr %136, align 8, !tbaa !23
  %138 = getelementptr inbounds nuw %struct._lv_fs_file_cache_t, ptr %137, i32 0, i32 2
  store i32 0, ptr %138, align 8, !tbaa !29
  %139 = load ptr, ptr %12, align 8, !tbaa !6
  %140 = getelementptr inbounds nuw %struct._lv_fs_path_ex_t, ptr %139, i32 0, i32 2
  %141 = load i32, ptr %140, align 8, !tbaa !30
  %142 = load ptr, ptr %5, align 8, !tbaa !6
  %143 = getelementptr inbounds nuw %struct.lv_fs_file_t, ptr %142, i32 0, i32 2
  %144 = load ptr, ptr %143, align 8, !tbaa !23
  %145 = getelementptr inbounds nuw %struct._lv_fs_file_cache_t, ptr %144, i32 0, i32 1
  store i32 %141, ptr %145, align 4, !tbaa !31
  call void @llvm.lifetime.end.p0(i64 8, ptr %12) #4
  br label %155

146:                                              ; preds = %117
  %147 = load ptr, ptr %5, align 8, !tbaa !6
  %148 = getelementptr inbounds nuw %struct.lv_fs_file_t, ptr %147, i32 0, i32 2
  %149 = load ptr, ptr %148, align 8, !tbaa !23
  %150 = getelementptr inbounds nuw %struct._lv_fs_file_cache_t, ptr %149, i32 0, i32 0
  store i32 -1, ptr %150, align 8, !tbaa !28
  %151 = load ptr, ptr %5, align 8, !tbaa !6
  %152 = getelementptr inbounds nuw %struct.lv_fs_file_t, ptr %151, i32 0, i32 2
  %153 = load ptr, ptr %152, align 8, !tbaa !23
  %154 = getelementptr inbounds nuw %struct._lv_fs_file_cache_t, ptr %153, i32 0, i32 1
  store i32 -2, ptr %154, align 4, !tbaa !31
  br label %155

155:                                              ; preds = %146, %122
  br label %156

156:                                              ; preds = %155, %95
  store i32 0, ptr %4, align 4
  store i32 1, ptr %10, align 4
  br label %157

157:                                              ; preds = %156, %92, %60, %50, %33
  call void @llvm.lifetime.end.p0(i64 8, ptr %9) #4
  call void @llvm.lifetime.end.p0(i64 16, ptr %8) #4
  br label %158

158:                                              ; preds = %157, %17
  %159 = load i32, ptr %4, align 4
  ret i32 %159
}