; Function Attrs: nounwind uwtable
define range(i32 0, 13) i32 @lv_fs_open(ptr noundef %0, ptr noundef %1, i32 noundef %2) local_unnamed_addr #0 {
  %4 = icmp eq ptr %1, null
  br i1 %4, label %lv_fs_get_drv.exit.thread, label %5

5:                                                ; preds = %3
  %6 = load i8, ptr %1, align 1, !tbaa !13
  %.not.i = icmp eq i8 %6, 0
  br i1 %.not.i, label %lv_fs_resolve_path.exit, label %7

7:                                                ; preds = %5
  %8 = getelementptr inbounds nuw i8, ptr %1, i64 1
  %9 = load i8, ptr %8, align 1, !tbaa !13
  %10 = icmp eq i8 %9, 58
  %11 = getelementptr inbounds nuw i8, ptr %1, i64 2
  %spec.select.i = select i1 %10, ptr %11, ptr %8
  br label %lv_fs_resolve_path.exit

lv_fs_resolve_path.exit:                          ; preds = %5, %7
  %.0.i = phi ptr [ %1, %5 ], [ %spec.select.i, %7 ]
  %12 = tail call ptr @lv_ll_get_head(ptr noundef nonnull getelementptr inbounds nuw (i8, ptr @lv_global, i64 832)) #6
  %.not6.i = icmp eq ptr %12, null
  br i1 %.not6.i, label %lv_fs_get_drv.exit.thread, label %.lr.ph.i

.lr.ph.i:                                         ; preds = %lv_fs_resolve_path.exit, %16
  %.07.i = phi ptr [ %17, %16 ], [ %12, %lv_fs_resolve_path.exit ]
  %13 = load ptr, ptr %.07.i, align 8, !tbaa !3
  %14 = load i8, ptr %13, align 8, !tbaa !7
  %15 = icmp eq i8 %14, %6
  br i1 %15, label %lv_fs_get_drv.exit, label %16

16:                                               ; preds = %.lr.ph.i
  %17 = tail call ptr @lv_ll_get_next(ptr noundef nonnull getelementptr inbounds nuw (i8, ptr @lv_global, i64 832), ptr noundef nonnull %.07.i) #6
  %.not.i46 = icmp eq ptr %17, null
  br i1 %.not.i46, label %lv_fs_get_drv.exit.thread, label %.lr.ph.i, !llvm.loop !10

lv_fs_get_drv.exit:                               ; preds = %.lr.ph.i
  %18 = getelementptr inbounds nuw i8, ptr %13, i64 8
  %19 = load ptr, ptr %18, align 8, !tbaa !12
  %.not = icmp eq ptr %19, null
  br i1 %.not, label %22, label %20

20:                                               ; preds = %lv_fs_get_drv.exit
  %21 = tail call zeroext i1 %19(ptr noundef nonnull %13) #6
  br i1 %21, label %22, label %lv_fs_get_drv.exit.thread

22:                                               ; preds = %20, %lv_fs_get_drv.exit
  %23 = getelementptr inbounds nuw i8, ptr %13, i64 16
  %24 = load ptr, ptr %23, align 8, !tbaa !14
  %25 = icmp eq ptr %24, null
  br i1 %25, label %lv_fs_get_drv.exit.thread, label %26

26:                                               ; preds = %22
  %27 = getelementptr inbounds nuw i8, ptr %0, i64 8
  store ptr %13, ptr %27, align 8, !tbaa !15
  %28 = getelementptr inbounds nuw i8, ptr %13, i64 4
  %29 = load i32, ptr %28, align 4, !tbaa !17
  %30 = icmp eq i32 %29, -1
  br i1 %30, label %.thread, label %31

.thread:                                          ; preds = %26
  store ptr %0, ptr %0, align 8, !tbaa !18
  br label %34

31:                                               ; preds = %26
  %32 = tail call ptr %24(ptr noundef nonnull %13, ptr noundef %.0.i, i32 noundef %2) #6
  %magicptr49 = ptrtoint ptr %32 to i64
  switch i64 %magicptr49, label %33 [
    i64 -1, label %lv_fs_get_drv.exit.thread
    i64 0, label %lv_fs_get_drv.exit.thread
  ]

33:                                               ; preds = %31
  store ptr %32, ptr %0, align 8, !tbaa !18
  %.pr = load i32, ptr %28, align 4, !tbaa !17
  %.not43 = icmp eq i32 %.pr, 0
  br i1 %.not43, label %lv_fs_get_drv.exit.thread, label %34

34:                                               ; preds = %.thread, %33
  %35 = tail call ptr @lv_malloc_zeroed(i64 noundef 24) #6
  %36 = getelementptr inbounds nuw i8, ptr %0, i64 16
  store ptr %35, ptr %36, align 8, !tbaa !19
  %.not44 = icmp eq ptr %35, null
  br i1 %.not44, label %.preheader, label %37

.preheader:                                       ; preds = %34, %.preheader
  br label %.preheader

37:                                               ; preds = %34
  %38 = load i32, ptr %28, align 4, !tbaa !17
  %39 = icmp eq i32 %38, -1
  br i1 %39, label %40, label %47

40:                                               ; preds = %37
  %41 = getelementptr inbounds nuw i8, ptr %1, i64 8
  %42 = load ptr, ptr %41, align 8, !tbaa !20
  %43 = getelementptr inbounds nuw i8, ptr %35, i64 16
  store ptr %42, ptr %43, align 8, !tbaa !22
  store i32 0, ptr %35, align 8, !tbaa !24
  %44 = getelementptr inbounds nuw i8, ptr %35, i64 8
  store i32 0, ptr %44, align 8, !tbaa !25
  %45 = getelementptr inbounds nuw i8, ptr %1, i64 16
  %46 = load i32, ptr %45, align 8, !tbaa !26
  br label %lv_fs_get_drv.exit.thread.sink.split

47:                                               ; preds = %37
  store i32 -1, ptr %35, align 8, !tbaa !24
  br label %lv_fs_get_drv.exit.thread.sink.split

lv_fs_get_drv.exit.thread.sink.split:             ; preds = %47, %40
  %.sink = phi i32 [ %46, %40 ], [ -2, %47 ]
  %48 = getelementptr inbounds nuw i8, ptr %35, i64 4
  store i32 %.sink, ptr %48, align 4, !tbaa !27
  br label %lv_fs_get_drv.exit.thread

lv_fs_get_drv.exit.thread:                        ; preds = %16, %lv_fs_get_drv.exit.thread.sink.split, %31, %31, %lv_fs_resolve_path.exit, %20, %22, %33, %3
  %.0 = phi i32 [ 11, %3 ], [ 1, %20 ], [ 9, %22 ], [ 0, %33 ], [ 3, %lv_fs_resolve_path.exit ], [ 12, %31 ], [ 12, %31 ], [ 0, %lv_fs_get_drv.exit.thread.sink.split ], [ 3, %16 ]
  ret i32 %.0
}